target datalayout = "e-m:e-p270:32:32-p271:32:32-p272:64:64-i64:64-i128:128-f80:128-n8:16:32:64-S128"
target triple = "x86_64-pc-linux-gnu"

%struct.rule = type { ptr, ptr, i32, i32, i32, ptr, ptr, i32, ptr, ptr, ptr, ptr, i32, i32, i32, i32, i32, i32, i32, ptr, ptr }
%struct.config = type { ptr, i32, ptr, ptr, ptr, ptr, i32, ptr, ptr }
%struct.s_x4 = type { i32, i32, ptr, ptr }
%struct.s_x4node = type { ptr, ptr, ptr }

@x4a = internal global ptr null, align 8

; Function Attrs: nounwind null_pointer_is_valid sspstrong uwtable
define hidden i32 @Configcmp(ptr noundef %0, ptr noundef %1) #2 {
  %3 = alloca ptr, align 8
  %4 = alloca ptr, align 8
  %5 = alloca ptr, align 8
  %6 = alloca ptr, align 8
  %7 = alloca i32, align 4
  store ptr %0, ptr %3, align 8
  store ptr %1, ptr %4, align 8
  call void @llvm.lifetime.start.p0(i64 8, ptr %5) #18
  %8 = load ptr, ptr %3, align 8
  store ptr %8, ptr %5, align 8
  call void @llvm.lifetime.start.p0(i64 8, ptr %6) #18
  %9 = load ptr, ptr %4, align 8
  store ptr %9, ptr %6, align 8
  call void @llvm.lifetime.start.p0(i64 4, ptr %7) #18
  %10 = load ptr, ptr %5, align 8
  %11 = getelementptr inbounds nuw %struct.config, ptr %10, i32 0, i32 0
  %12 = load ptr, ptr %11, align 8
  %13 = getelementptr inbounds nuw %struct.rule, ptr %12, i32 0, i32 12
  %14 = load i32, ptr %13, align 8
  %15 = load ptr, ptr %6, align 8
  %16 = getelementptr inbounds nuw %struct.config, ptr %15, i32 0, i32 0
  %17 = load ptr, ptr %16, align 8
  %18 = getelementptr inbounds nuw %struct.rule, ptr %17, i32 0, i32 12
  %19 = load i32, ptr %18, align 8
  %20 = sub i32 %14, %19
  store i32 %20, ptr %7, align 4
  %21 = load i32, ptr %7, align 4
  %22 = icmp eq i32 %21, 0
  br i1 %22, label %23, label %31

23:                                               ; preds = %2
  %24 = load ptr, ptr %5, align 8
  %25 = getelementptr inbounds nuw %struct.config, ptr %24, i32 0, i32 1
  %26 = load i32, ptr %25, align 8
  %27 = load ptr, ptr %6, align 8
  %28 = getelementptr inbounds nuw %struct.config, ptr %27, i32 0, i32 1
  %29 = load i32, ptr %28, align 8
  %30 = sub i32 %26, %29
  store i32 %30, ptr %7, align 4
  br label %31

31:                                               ; preds = %23, %2
  %32 = load i32, ptr %7, align 4
  call void @llvm.lifetime.end.p0(i64 4, ptr %7) #18
  call void @llvm.lifetime.end.p0(i64 8, ptr %6) #18
  call void @llvm.lifetime.end.p0(i64 8, ptr %5) #18
  ret i32 %32
}

; Function Attrs: nounwind null_pointer_is_valid sspstrong uwtable
define hidden i32 @confighash(ptr noundef %0) #2 {
  %2 = alloca ptr, align 8
  %3 = alloca i32, align 4
  store ptr %0, ptr %2, align 8
  call void @llvm.lifetime.start.p0(i64 4, ptr %3) #18
  store i32 0, ptr %3, align 4
  %4 = load i32, ptr %3, align 4
  %5 = mul i32 %4, 571
  %6 = load ptr, ptr %2, align 8
  %7 = getelementptr inbounds nuw %struct.config, ptr %6, i32 0, i32 0
  %8 = load ptr, ptr %7, align 8
  %9 = getelementptr inbounds nuw %struct.rule, ptr %8, i32 0, i32 12
  %10 = load i32, ptr %9, align 8
  %11 = mul i32 %10, 37
  %12 = add i32 %5, %11
  %13 = load ptr, ptr %2, align 8
  %14 = getelementptr inbounds nuw %struct.config, ptr %13, i32 0, i32 1
  %15 = load i32, ptr %14, align 8
  %16 = add i32 %12, %15
  store i32 %16, ptr %3, align 4
  %17 = load i32, ptr %3, align 4
  call void @llvm.lifetime.end.p0(i64 4, ptr %3) #18
  ret i32 %17
}

; Function Attrs: nounwind null_pointer_is_valid sspstrong uwtable
define hidden i32 @Configtable_insert(ptr noundef %0) #2 {
  %2 = alloca i32, align 4
  %3 = alloca ptr, align 8
  %4 = alloca ptr, align 8
  %5 = alloca i32, align 4
  %6 = alloca i32, align 4
  %7 = alloca i32, align 4
  %8 = alloca i32, align 4
  %9 = alloca i32, align 4
  %10 = alloca %struct.s_x4, align 8
  %11 = alloca ptr, align 8
  %12 = alloca ptr, align 8
  store ptr %0, ptr %3, align 8
  call void @llvm.lifetime.start.p0(i64 8, ptr %4) #18
  call void @llvm.lifetime.start.p0(i64 4, ptr %5) #18
  call void @llvm.lifetime.start.p0(i64 4, ptr %6) #18
  %13 = load ptr, ptr @x4a, align 8
  %14 = icmp eq ptr %13, null
  br i1 %14, label %15, label %16

15:                                               ; preds = %1
  store i32 0, ptr %2, align 4
  store i32 1, ptr %7, align 4
  br label %234

16:                                               ; preds = %1
  %17 = load ptr, ptr %3, align 8
  %18 = call i32 @confighash(ptr noundef %17)
  store i32 %18, ptr %6, align 4
  %19 = load i32, ptr %6, align 4
  %20 = load ptr, ptr @x4a, align 8
  %21 = getelementptr inbounds nuw %struct.s_x4, ptr %20, i32 0, i32 0
  %22 = load i32, ptr %21, align 8
  %23 = sub i32 %22, 1
  %24 = and i32 %19, %23
  store i32 %24, ptr %5, align 4
  %25 = load ptr, ptr @x4a, align 8
  %26 = getelementptr inbounds nuw %struct.s_x4, ptr %25, i32 0, i32 3
  %27 = load ptr, ptr %26, align 8
  %28 = load i32, ptr %5, align 4
  %29 = zext i32 %28 to i64
  %30 = getelementptr ptr, ptr %27, i64 %29
  %31 = load ptr, ptr %30, align 8
  store ptr %31, ptr %4, align 8
  br label %32

32:                                               ; preds = %43, %16
  %33 = load ptr, ptr %4, align 8
  %34 = icmp ne ptr %33, null
  br i1 %34, label %35, label %47

35:                                               ; preds = %32
  %36 = load ptr, ptr %4, align 8
  %37 = getelementptr inbounds nuw %struct.s_x4node, ptr %36, i32 0, i32 0
  %38 = load ptr, ptr %37, align 8
  %39 = load ptr, ptr %3, align 8
  %40 = call i32 @Configcmp(ptr noundef %38, ptr noundef %39)
  %41 = icmp eq i32 %40, 0
  br i1 %41, label %42, label %43

42:                                               ; preds = %35
  store i32 0, ptr %2, align 4
  store i32 1, ptr %7, align 4
  br label %234

43:                                               ; preds = %35
  %44 = load ptr, ptr %4, align 8
  %45 = getelementptr inbounds nuw %struct.s_x4node, ptr %44, i32 0, i32 1
  %46 = load ptr, ptr %45, align 8
  store ptr %46, ptr %4, align 8
  br label %32, !llvm.loop !77

47:                                               ; preds = %32
  %48 = load ptr, ptr @x4a, align 8
  %49 = getelementptr inbounds nuw %struct.s_x4, ptr %48, i32 0, i32 1
  %50 = load i32, ptr %49, align 4
  %51 = load ptr, ptr @x4a, align 8
  %52 = getelementptr inbounds nuw %struct.s_x4, ptr %51, i32 0, i32 0
  %53 = load i32, ptr %52, align 8
  %54 = icmp sge i32 %50, %53
  br i1 %54, label %55, label %171

55:                                               ; preds = %47
  call void @llvm.lifetime.start.p0(i64 4, ptr %8) #18
  call void @llvm.lifetime.start.p0(i64 4, ptr %9) #18
  call void @llvm.lifetime.start.p0(i64 24, ptr %10) #18
  %56 = load ptr, ptr @x4a, align 8
  %57 = getelementptr inbounds nuw %struct.s_x4, ptr %56, i32 0, i32 0
  %58 = load i32, ptr %57, align 8
  %59 = mul i32 %58, 2
  store i32 %59, ptr %9, align 4
  %60 = getelementptr inbounds nuw %struct.s_x4, ptr %10, i32 0, i32 0
  store i32 %59, ptr %60, align 8
  %61 = load ptr, ptr @x4a, align 8
  %62 = getelementptr inbounds nuw %struct.s_x4, ptr %61, i32 0, i32 1
  %63 = load i32, ptr %62, align 4
  %64 = getelementptr inbounds nuw %struct.s_x4, ptr %10, i32 0, i32 1
  store i32 %63, ptr %64, align 4
  %65 = load i32, ptr %9, align 4
  %66 = sext i32 %65 to i64
  %67 = call noalias ptr @calloc(i64 noundef %66, i64 noundef 32) #19
  %68 = getelementptr inbounds nuw %struct.s_x4, ptr %10, i32 0, i32 2
  store ptr %67, ptr %68, align 8
  %69 = getelementptr inbounds nuw %struct.s_x4, ptr %10, i32 0, i32 2
  %70 = load ptr, ptr %69, align 8
  %71 = icmp eq ptr %70, null
  br i1 %71, label %72, label %73

72:                                               ; preds = %55
  store i32 0, ptr %2, align 4
  store i32 1, ptr %7, align 4
  br label %168

73:                                               ; preds = %55
  %74 = getelementptr inbounds nuw %struct.s_x4, ptr %10, i32 0, i32 2
  %75 = load ptr, ptr %74, align 8
  %76 = load i32, ptr %9, align 4
  %77 = sext i32 %76 to i64
  %78 = getelementptr %struct.s_x4node, ptr %75, i64 %77
  %79 = getelementptr inbounds nuw %struct.s_x4, ptr %10, i32 0, i32 3
  store ptr %78, ptr %79, align 8
  store i32 0, ptr %8, align 4
  br label %80

80:                                               ; preds = %90, %73
  %81 = load i32, ptr %8, align 4
  %82 = load i32, ptr %9, align 4
  %83 = icmp slt i32 %81, %82
  br i1 %83, label %84, label %93

84:                                               ; preds = %80
  %85 = getelementptr inbounds nuw %struct.s_x4, ptr %10, i32 0, i32 3
  %86 = load ptr, ptr %85, align 8
  %87 = load i32, ptr %8, align 4
  %88 = sext i32 %87 to i64
  %89 = getelementptr ptr, ptr %86, i64 %88
  store ptr null, ptr %89, align 8
  br label %90

90:                                               ; preds = %84
  %91 = load i32, ptr %8, align 4
  %92 = add i32 %91, 1
  store i32 %92, ptr %8, align 4
  br label %80, !llvm.loop !78

93:                                               ; preds = %80
  store i32 0, ptr %8, align 4
  br label %94

94:                                               ; preds = %163, %93
  %95 = load i32, ptr %8, align 4
  %96 = load ptr, ptr @x4a, align 8
  %97 = getelementptr inbounds nuw %struct.s_x4, ptr %96, i32 0, i32 1
  %98 = load i32, ptr %97, align 4
  %99 = icmp slt i32 %95, %98
  br i1 %99, label %100, label %166

100:                                              ; preds = %94
  call void @llvm.lifetime.start.p0(i64 8, ptr %11) #18
  call void @llvm.lifetime.start.p0(i64 8, ptr %12) #18
  %101 = load ptr, ptr @x4a, align 8
  %102 = getelementptr inbounds nuw %struct.s_x4, ptr %101, i32 0, i32 2
  %103 = load ptr, ptr %102, align 8
  %104 = load i32, ptr %8, align 4
  %105 = sext i32 %104 to i64
  %106 = getelementptr %struct.s_x4node, ptr %103, i64 %105
  store ptr %106, ptr %11, align 8
  %107 = load ptr, ptr %11, align 8
  %108 = getelementptr inbounds nuw %struct.s_x4node, ptr %107, i32 0, i32 0
  %109 = load ptr, ptr %108, align 8
  %110 = call i32 @confighash(ptr noundef %109)
  %111 = load i32, ptr %9, align 4
  %112 = sub i32 %111, 1
  %113 = and i32 %110, %112
  store i32 %113, ptr %5, align 4
  %114 = getelementptr inbounds nuw %struct.s_x4, ptr %10, i32 0, i32 2
  %115 = load ptr, ptr %114, align 8
  %116 = load i32, ptr %8, align 4
  %117 = sext i32 %116 to i64
  %118 = getelementptr %struct.s_x4node, ptr %115, i64 %117
  store ptr %118, ptr %12, align 8
  %119 = getelementptr inbounds nuw %struct.s_x4, ptr %10, i32 0, i32 3
  %120 = load ptr, ptr %119, align 8
  %121 = load i32, ptr %5, align 4
  %122 = zext i32 %121 to i64
  %123 = getelementptr ptr, ptr %120, i64 %122
  %124 = load ptr, ptr %123, align 8
  %125 = icmp ne ptr %124, null
  br i1 %125, label %126, label %136

126:                                              ; preds = %100
  %127 = load ptr, ptr %12, align 8
  %128 = getelementptr inbounds nuw %struct.s_x4node, ptr %127, i32 0, i32 1
  %129 = getelementptr inbounds nuw %struct.s_x4, ptr %10, i32 0, i32 3
  %130 = load ptr, ptr %129, align 8
  %131 = load i32, ptr %5, align 4
  %132 = zext i32 %131 to i64
  %133 = getelementptr ptr, ptr %130, i64 %132
  %134 = load ptr, ptr %133, align 8
  %135 = getelementptr inbounds nuw %struct.s_x4node, ptr %134, i32 0, i32 2
  store ptr %128, ptr %135, align 8
  br label %136

136:                                              ; preds = %126, %100
  %137 = getelementptr inbounds nuw %struct.s_x4, ptr %10, i32 0, i32 3
  %138 = load ptr, ptr %137, align 8
  %139 = load i32, ptr %5, align 4
  %140 = zext i32 %139 to i64
  %141 = getelementptr ptr, ptr %138, i64 %140
  %142 = load ptr, ptr %141, align 8
  %143 = load ptr, ptr %12, align 8
  %144 = getelementptr inbounds nuw %struct.s_x4node, ptr %143, i32 0, i32 1
  store ptr %142, ptr %144, align 8
  %145 = load ptr, ptr %11, align 8
  %146 = getelementptr inbounds nuw %struct.s_x4node, ptr %145, i32 0, i32 0
  %147 = load ptr, ptr %146, align 8
  %148 = load ptr, ptr %12, align 8
  %149 = getelementptr inbounds nuw %struct.s_x4node, ptr %148, i32 0, i32 0
  store ptr %147, ptr %149, align 8
  %150 = getelementptr inbounds nuw %struct.s_x4, ptr %10, i32 0, i32 3
  %151 = load ptr, ptr %150, align 8
  %152 = load i32, ptr %5, align 4
  %153 = zext i32 %152 to i64
  %154 = getelementptr ptr, ptr %151, i64 %153
  %155 = load ptr, ptr %12, align 8
  %156 = getelementptr inbounds nuw %struct.s_x4node, ptr %155, i32 0, i32 2
  store ptr %154, ptr %156, align 8
  %157 = load ptr, ptr %12, align 8
  %158 = getelementptr inbounds nuw %struct.s_x4, ptr %10, i32 0, i32 3
  %159 = load ptr, ptr %158, align 8
  %160 = load i32, ptr %5, align 4
  %161 = zext i32 %160 to i64
  %162 = getelementptr ptr, ptr %159, i64 %161
  store ptr %157, ptr %162, align 8
  call void @llvm.lifetime.end.p0(i64 8, ptr %12) #18
  call void @llvm.lifetime.end.p0(i64 8, ptr %11) #18
  br label %163

163:                                              ; preds = %136
  %164 = load i32, ptr %8, align 4
  %165 = add i32 %164, 1
  store i32 %165, ptr %8, align 4
  br label %94, !llvm.loop !79

166:                                              ; preds = %94
  %167 = load ptr, ptr @x4a, align 8
  call void @llvm.memcpy.p0.p0.i64(ptr align 8 %167, ptr align 8 %10, i64 24, i1 false)
  store i32 0, ptr %7, align 4
  br label %168

168:                                              ; preds = %166, %72
  call void @llvm.lifetime.end.p0(i64 24, ptr %10) #18
  call void @llvm.lifetime.end.p0(i64 4, ptr %9) #18
  call void @llvm.lifetime.end.p0(i64 4, ptr %8) #18
  %169 = load i32, ptr %7, align 4
  switch i32 %169, label %234 [
    i32 0, label %170
  ]

170:                                              ; preds = %168
  br label %171

171:                                              ; preds = %170, %47
  %172 = load i32, ptr %6, align 4
  %173 = load ptr, ptr @x4a, align 8
  %174 = getelementptr inbounds nuw %struct.s_x4, ptr %173, i32 0, i32 0
  %175 = load i32, ptr %174, align 8
  %176 = sub i32 %175, 1
  %177 = and i32 %172, %176
  store i32 %177, ptr %5, align 4
  %178 = load ptr, ptr @x4a, align 8
  %179 = getelementptr inbounds nuw %struct.s_x4, ptr %178, i32 0, i32 2
  %180 = load ptr, ptr %179, align 8
  %181 = load ptr, ptr @x4a, align 8
  %182 = getelementptr inbounds nuw %struct.s_x4, ptr %181, i32 0, i32 1
  %183 = load i32, ptr %182, align 4
  %184 = add i32 %183, 1
  store i32 %184, ptr %182, align 4
  %185 = sext i32 %183 to i64
  %186 = getelementptr %struct.s_x4node, ptr %180, i64 %185
  store ptr %186, ptr %4, align 8
  %187 = load ptr, ptr %3, align 8
  %188 = load ptr, ptr %4, align 8
  %189 = getelementptr inbounds nuw %struct.s_x4node, ptr %188, i32 0, i32 0
  store ptr %187, ptr %189, align 8
  %190 = load ptr, ptr @x4a, align 8
  %191 = getelementptr inbounds nuw %struct.s_x4, ptr %190, i32 0, i32 3
  %192 = load ptr, ptr %191, align 8
  %193 = load i32, ptr %5, align 4
  %194 = zext i32 %193 to i64
  %195 = getelementptr ptr, ptr %192, i64 %194
  %196 = load ptr, ptr %195, align 8
  %197 = icmp ne ptr %196, null
  br i1 %197, label %198, label %209

198:                                              ; preds = %171
  %199 = load ptr, ptr %4, align 8
  %200 = getelementptr inbounds nuw %struct.s_x4node, ptr %199, i32 0, i32 1
  %201 = load ptr, ptr @x4a, align 8
  %202 = getelementptr inbounds nuw %struct.s_x4, ptr %201, i32 0, i32 3
  %203 = load ptr, ptr %202, align 8
  %204 = load i32, ptr %5, align 4
  %205 = zext i32 %204 to i64
  %206 = getelementptr ptr, ptr %203, i64 %205
  %207 = load ptr, ptr %206, align 8
  %208 = getelementptr inbounds nuw %struct.s_x4node, ptr %207, i32 0, i32 2
  store ptr %200, ptr %208, align 8
  br label %209

209:                                              ; preds = %198, %171
  %210 = load ptr, ptr @x4a, align 8
  %211 = getelementptr inbounds nuw %struct.s_x4, ptr %210, i32 0, i32 3
  %212 = load ptr, ptr %211, align 8
  %213 = load i32, ptr %5, align 4
  %214 = zext i32 %213 to i64
  %215 = getelementptr ptr, ptr %212, i64 %214
  %216 = load ptr, ptr %215, align 8
  %217 = load ptr, ptr %4, align 8
  %218 = getelementptr inbounds nuw %struct.s_x4node, ptr %217, i32 0, i32 1
  store ptr %216, ptr %218, align 8
  %219 = load ptr, ptr %4, align 8
  %220 = load ptr, ptr @x4a, align 8
  %221 = getelementptr inbounds nuw %struct.s_x4, ptr %220, i32 0, i32 3
  %222 = load ptr, ptr %221, align 8
  %223 = load i32, ptr %5, align 4
  %224 = zext i32 %223 to i64
  %225 = getelementptr ptr, ptr %222, i64 %224
  store ptr %219, ptr %225, align 8
  %226 = load ptr, ptr @x4a, align 8
  %227 = getelementptr inbounds nuw %struct.s_x4, ptr %226, i32 0, i32 3
  %228 = load ptr, ptr %227, align 8
  %229 = load i32, ptr %5, align 4
  %230 = zext i32 %229 to i64
  %231 = getelementptr ptr, ptr %228, i64 %230
  %232 = load ptr, ptr %4, align 8
  %233 = getelementptr inbounds nuw %struct.s_x4node, ptr %232, i32 0, i32 2
  store ptr %231, ptr %233, align 8
  store i32 1, ptr %2, align 4
  store i32 1, ptr %7, align 4
  br label %234

234:                                              ; preds = %209, %168, %42, %15
  call void @llvm.lifetime.end.p0(i64 4, ptr %6) #18
  call void @llvm.lifetime.end.p0(i64 4, ptr %5) #18
  call void @llvm.lifetime.end.p0(i64 8, ptr %4) #18
  %235 = load i32, ptr %2, align 4
  ret i32 %235
}