; Function Attrs: nofree nounwind null_pointer_is_valid sspstrong uwtable
define hidden range(i32 0, 2) i32 @Configtable_insert(ptr noundef %0) local_unnamed_addr #18 {
  %2 = load ptr, ptr @x4a, align 8
  %3 = icmp eq ptr %2, null
  br i1 %3, label %.critedge, label %4

4:                                                ; preds = %1
  %5 = load ptr, ptr %0, align 8
  %6 = getelementptr inbounds nuw i8, ptr %5, i64 88
  %7 = load i32, ptr %6, align 8
  %8 = mul i32 %7, 37
  %9 = getelementptr inbounds nuw i8, ptr %0, i64 8
  %10 = load i32, ptr %9, align 8
  %11 = add i32 %8, %10
  %12 = load i32, ptr %2, align 8
  %13 = add i32 %12, -1
  %14 = and i32 %13, %11
  %15 = getelementptr inbounds nuw i8, ptr %2, i64 16
  %16 = load ptr, ptr %15, align 8
  %17 = zext i32 %14 to i64
  %18 = getelementptr ptr, ptr %16, i64 %17
  %.05065 = load ptr, ptr %18, align 8
  %.not66 = icmp eq ptr %.05065, null
  br i1 %.not66, label %._crit_edge, label %.lr.ph

.lr.ph:                                           ; preds = %4, %Configcmp.exit.thread
  %.05067 = phi ptr [ %.050, %Configcmp.exit.thread ], [ %.05065, %4 ]
  %19 = load ptr, ptr %.05067, align 8
  %20 = load ptr, ptr %19, align 8
  %21 = getelementptr inbounds nuw i8, ptr %20, i64 88
  %22 = load i32, ptr %21, align 8
  %23 = icmp eq i32 %22, %7
  br i1 %23, label %Configcmp.exit, label %Configcmp.exit.thread

Configcmp.exit:                                   ; preds = %.lr.ph
  %24 = getelementptr inbounds nuw i8, ptr %19, i64 8
  %25 = load i32, ptr %24, align 8
  %26 = icmp eq i32 %25, %10
  br i1 %26, label %.critedge, label %Configcmp.exit.thread

Configcmp.exit.thread:                            ; preds = %.lr.ph, %Configcmp.exit
  %27 = getelementptr inbounds nuw i8, ptr %.05067, i64 8
  %.050 = load ptr, ptr %27, align 8
  %.not = icmp eq ptr %.050, null
  br i1 %.not, label %._crit_edge, label %.lr.ph, !llvm.loop !50

._crit_edge:                                      ; preds = %Configcmp.exit.thread, %4
  %28 = getelementptr inbounds nuw i8, ptr %2, i64 4
  %29 = load i32, ptr %28, align 4
  %.not60 = icmp slt i32 %29, %12
  br i1 %.not60, label %._crit_edge._crit_edge, label %30

._crit_edge._crit_edge:                           ; preds = %._crit_edge
  %.phi.trans.insert = getelementptr inbounds nuw i8, ptr %2, i64 8
  %.pre77 = load ptr, ptr %.phi.trans.insert, align 8
  br label %66

30:                                               ; preds = %._crit_edge
  %31 = shl i32 %12, 1
  %32 = sext i32 %31 to i64
  %33 = tail call noalias ptr @calloc(i64 noundef %32, i64 noundef 32) #40
  %.not62 = icmp eq ptr %33, null
  br i1 %.not62, label %.critedge, label %.preheader

.preheader:                                       ; preds = %30
  %34 = getelementptr %struct.s_x4node, ptr %33, i64 %32
  %35 = icmp sgt i32 %29, 0
  br i1 %35, label %.lr.ph72, label %.preheader.._crit_edge73_crit_edge

.preheader.._crit_edge73_crit_edge:               ; preds = %.preheader
  %.pre86 = add i32 %31, -1
  br label %._crit_edge73

.lr.ph72:                                         ; preds = %.preheader
  %36 = getelementptr inbounds nuw i8, ptr %2, i64 8
  %37 = add i32 %31, -1
  br label %38

38:                                               ; preds = %.lr.ph72, %58
  %39 = phi i32 [ %29, %.lr.ph72 ], [ %59, %58 ]
  %indvars.iv = phi i64 [ 0, %.lr.ph72 ], [ %indvars.iv.next, %58 ]
  %40 = load ptr, ptr %36, align 8
  %41 = getelementptr %struct.s_x4node, ptr %40, i64 %indvars.iv
  %42 = load ptr, ptr %41, align 8
  %43 = load ptr, ptr %42, align 8
  %44 = getelementptr inbounds nuw i8, ptr %43, i64 88
  %45 = load i32, ptr %44, align 8
  %46 = mul i32 %45, 37
  %47 = getelementptr inbounds nuw i8, ptr %42, i64 8
  %48 = load i32, ptr %47, align 8
  %49 = add i32 %46, %48
  %50 = and i32 %49, %37
  %51 = getelementptr %struct.s_x4node, ptr %33, i64 %indvars.iv
  %52 = zext i32 %50 to i64
  %53 = getelementptr ptr, ptr %34, i64 %52
  %54 = load ptr, ptr %53, align 8
  %.not61 = icmp eq ptr %54, null
  br i1 %.not61, label %58, label %55

55:                                               ; preds = %38
  %56 = getelementptr inbounds nuw i8, ptr %51, i64 8
  %57 = getelementptr inbounds nuw i8, ptr %54, i64 16
  store ptr %56, ptr %57, align 8
  %.pre = load ptr, ptr %53, align 8
  %.pre76 = load i32, ptr %28, align 4
  br label %58

58:                                               ; preds = %55, %38
  %59 = phi i32 [ %.pre76, %55 ], [ %39, %38 ]
  %60 = phi ptr [ %.pre, %55 ], [ null, %38 ]
  %61 = getelementptr inbounds nuw i8, ptr %51, i64 8
  store ptr %60, ptr %61, align 8
  %62 = load ptr, ptr %41, align 8
  store ptr %62, ptr %51, align 8
  %63 = getelementptr inbounds nuw i8, ptr %51, i64 16
  store ptr %53, ptr %63, align 8
  store ptr %51, ptr %53, align 8
  %indvars.iv.next = add nuw nsw i64 %indvars.iv, 1
  %64 = sext i32 %59 to i64
  %65 = icmp slt i64 %indvars.iv.next, %64
  br i1 %65, label %38, label %._crit_edge73, !llvm.loop !51

._crit_edge73:                                    ; preds = %58, %.preheader.._crit_edge73_crit_edge
  %.pre81.pre-phi = phi i32 [ %.pre86, %.preheader.._crit_edge73_crit_edge ], [ %37, %58 ]
  store i32 %31, ptr %2, align 8
  %.sroa.5.0..sroa_idx = getelementptr inbounds nuw i8, ptr %2, i64 8
  store ptr %33, ptr %.sroa.5.0..sroa_idx, align 8
  store ptr %34, ptr %15, align 8
  %.pre82 = and i32 %.pre81.pre-phi, %11
  %.pre84 = zext i32 %.pre82 to i64
  br label %66

66:                                               ; preds = %._crit_edge._crit_edge, %._crit_edge73
  %.pre-phi85 = phi i64 [ %17, %._crit_edge._crit_edge ], [ %.pre84, %._crit_edge73 ]
  %67 = phi ptr [ %.pre77, %._crit_edge._crit_edge ], [ %33, %._crit_edge73 ]
  %68 = add i32 %29, 1
  store i32 %68, ptr %28, align 4
  %69 = sext i32 %29 to i64
  %70 = getelementptr %struct.s_x4node, ptr %67, i64 %69
  store ptr %0, ptr %70, align 8
  %71 = load ptr, ptr %15, align 8
  %72 = getelementptr ptr, ptr %71, i64 %.pre-phi85
  %73 = load ptr, ptr %72, align 8
  %.not63 = icmp eq ptr %73, null
  br i1 %.not63, label %77, label %74

74:                                               ; preds = %66
  %75 = getelementptr inbounds nuw i8, ptr %70, i64 8
  %76 = getelementptr inbounds nuw i8, ptr %73, i64 16
  store ptr %75, ptr %76, align 8
  %.pre78 = load ptr, ptr %15, align 8
  %.phi.trans.insert79 = getelementptr ptr, ptr %.pre78, i64 %.pre-phi85
  %.pre80 = load ptr, ptr %.phi.trans.insert79, align 8
  br label %77

77:                                               ; preds = %74, %66
  %78 = phi ptr [ %.pre80, %74 ], [ null, %66 ]
  %79 = getelementptr inbounds nuw i8, ptr %70, i64 8
  store ptr %78, ptr %79, align 8
  %80 = load ptr, ptr %15, align 8
  %81 = getelementptr ptr, ptr %80, i64 %.pre-phi85
  store ptr %70, ptr %81, align 8
  %82 = load ptr, ptr %15, align 8
  %83 = getelementptr ptr, ptr %82, i64 %.pre-phi85
  %84 = getelementptr inbounds nuw i8, ptr %70, i64 16
  store ptr %83, ptr %84, align 8
  br label %.critedge

.critedge:                                        ; preds = %Configcmp.exit, %30, %1, %77
  %.0 = phi i32 [ 1, %77 ], [ 0, %1 ], [ 0, %30 ], [ 0, %Configcmp.exit ]
  ret i32 %.0
}